; Function Attrs: nounwind uwtable
define dso_local void @reftable_reader_decref(ptr noundef %0) local_unnamed_addr #0 {
  %.not = icmp eq ptr %0, null
  br i1 %.not, label %17, label %2

2:                                                ; preds = %1
  %3 = getelementptr inbounds nuw i8, ptr %0, i64 136
  %4 = load i64, ptr %3, align 8, !tbaa !32
  %.not8 = icmp eq i64 %4, 0
  br i1 %.not8, label %5, label %6

5:                                                ; preds = %2
  tail call void (ptr, i32, ptr, ...) @BUG_fl(ptr noundef nonnull @.str.1, i32 noundef 687, ptr noundef nonnull @.str.3) #13
  unreachable

6:                                                ; preds = %2
  %7 = add i64 %4, -1
  store i64 %7, ptr %3, align 8, !tbaa !32
  %.not9 = icmp eq i64 %7, 0
  br i1 %.not9, label %8, label %17

8:                                                ; preds = %6
  %9 = getelementptr inbounds nuw i8, ptr %0, i64 8
  %10 = load ptr, ptr %9, align 8, !tbaa !4
  %.not.i = icmp eq ptr %10, null
  br i1 %.not.i, label %block_source_close.exit, label %11

11:                                               ; preds = %8
  %12 = getelementptr inbounds nuw i8, ptr %10, i64 24
  %13 = load ptr, ptr %12, align 8, !tbaa !17
  %14 = getelementptr inbounds nuw i8, ptr %0, i64 16
  %15 = load ptr, ptr %14, align 8, !tbaa !12
  tail call void %13(ptr noundef %15) #12
  store ptr null, ptr %9, align 8, !tbaa !4
  br label %block_source_close.exit

block_source_close.exit:                          ; preds = %8, %11
  %16 = load ptr, ptr %0, align 8, !tbaa !24
  tail call void @reftable_free(ptr noundef %16) #12
  store ptr null, ptr %0, align 8, !tbaa !24
  tail call void @reftable_free(ptr noundef nonnull %0) #12
  br label %17

17:                                               ; preds = %6, %1, %block_source_close.exit
  ret void
}